; Function Attrs: nounwind uwtable
define ptr @l___private_Lean_Meta_SynthInstance_0__Lean_Meta_preprocessArgs___lambda__1(ptr noundef %0, ptr noundef %1, ptr noundef %2, ptr noundef %3, ptr noundef %4, ptr noundef %5, ptr noundef %6, ptr noundef %7, ptr noundef %8, ptr noundef %9) local_unnamed_addr #1 {
  %11 = ptrtoint ptr %4 to i64
  %12 = and i64 %11, 1
  %.not = icmp eq i64 %12, 0
  br i1 %.not, label %13, label %lean_inc.exit

13:                                               ; preds = %10
  %.val.i = load i32, ptr %4, align 4, !tbaa !4
  %14 = icmp sgt i32 %.val.i, 0
  br i1 %14, label %15, label %17, !prof !11

15:                                               ; preds = %13
  %16 = add nuw i32 %.val.i, 1
  store i32 %16, ptr %4, align 4, !tbaa !4
  br label %lean_inc.exit

17:                                               ; preds = %13
  %.not.i23 = icmp eq i32 %.val.i, 0
  br i1 %.not.i23, label %lean_inc.exit, label %18

18:                                               ; preds = %17
  tail call void @lean_inc_ref_cold(ptr noundef nonnull %4) #7
  br label %lean_inc.exit

lean_inc.exit:                                    ; preds = %18, %17, %15, %10
  %19 = ptrtoint ptr %1 to i64
  %20 = lshr i64 %19, 1
  %.val.i.i.i = load i32, ptr %0, align 4, !tbaa !4
  %21 = icmp eq i32 %.val.i.i.i, 1
  br i1 %21, label %lean_ensure_exclusive_array.exit.i.i, label %22

22:                                               ; preds = %lean_inc.exit
  %23 = tail call ptr @lean_copy_expand_array(ptr noundef nonnull %0, i1 noundef zeroext false) #7
  br label %lean_ensure_exclusive_array.exit.i.i

lean_ensure_exclusive_array.exit.i.i:             ; preds = %22, %lean_inc.exit
  %.0.i.i.i = phi ptr [ %23, %22 ], [ %0, %lean_inc.exit ]
  %24 = getelementptr inbounds nuw i8, ptr %.0.i.i.i, i64 24
  %25 = getelementptr inbounds nuw ptr, ptr %24, i64 %20
  %26 = load ptr, ptr %25, align 8, !tbaa !9
  %27 = ptrtoint ptr %26 to i64
  %28 = and i64 %27, 1
  %.not.i.i = icmp eq i64 %28, 0
  br i1 %.not.i.i, label %29, label %lean_array_fset.exit

29:                                               ; preds = %lean_ensure_exclusive_array.exit.i.i
  %30 = load i32, ptr %26, align 4, !tbaa !4
  %31 = icmp sgt i32 %30, 1
  br i1 %31, label %32, label %34, !prof !11

32:                                               ; preds = %29
  %33 = add nsw i32 %30, -1
  store i32 %33, ptr %26, align 4, !tbaa !4
  br label %lean_array_fset.exit

34:                                               ; preds = %29
  %.not.i.i.i = icmp eq i32 %30, 0
  br i1 %.not.i.i.i, label %lean_array_fset.exit, label %35

35:                                               ; preds = %34
  tail call void @lean_dec_ref_cold(ptr noundef nonnull %26) #7
  br label %lean_array_fset.exit

lean_array_fset.exit:                             ; preds = %lean_ensure_exclusive_array.exit.i.i, %32, %34, %35
  store ptr %4, ptr %25, align 8, !tbaa !9
  %36 = tail call ptr @lean_expr_instantiate1(ptr noundef %2, ptr noundef %4) #7
  br i1 %.not, label %37, label %lean_dec.exit20

37:                                               ; preds = %lean_array_fset.exit
  %38 = load i32, ptr %4, align 4, !tbaa !4
  %39 = icmp sgt i32 %38, 1
  br i1 %39, label %40, label %42, !prof !11

40:                                               ; preds = %37
  %41 = add nsw i32 %38, -1
  store i32 %41, ptr %4, align 4, !tbaa !4
  br label %lean_dec.exit20

42:                                               ; preds = %37
  %.not.i = icmp eq i32 %38, 0
  br i1 %.not.i, label %lean_dec.exit20, label %43

43:                                               ; preds = %42
  tail call void @lean_dec_ref_cold(ptr noundef nonnull %4) #7
  br label %lean_dec.exit20

lean_dec.exit20:                                  ; preds = %43, %42, %40, %lean_array_fset.exit
  %44 = and i64 %19, 1
  %.not25 = icmp eq i64 %44, 0
  br i1 %.not25, label %.critedge.i, label %45, !prof !14

45:                                               ; preds = %lean_dec.exit20
  %46 = add nuw i64 %20, 1
  %47 = icmp sgt i64 %46, -1
  br i1 %47, label %48, label %52, !prof !11

48:                                               ; preds = %45
  %49 = shl nuw i64 %46, 1
  %50 = or disjoint i64 %49, 1
  %51 = inttoptr i64 %50 to ptr
  br label %lean_nat_add.exit

52:                                               ; preds = %45
  %53 = tail call ptr @lean_big_usize_to_nat(i64 noundef %46) #7
  br label %lean_nat_add.exit

.critedge.i:                                      ; preds = %lean_dec.exit20
  %54 = tail call ptr @lean_nat_big_add(ptr noundef %1, ptr noundef nonnull inttoptr (i64 3 to ptr)) #7
  br label %lean_nat_add.exit

lean_nat_add.exit:                                ; preds = %52, %48, %.critedge.i
  %.0.i = phi ptr [ %54, %.critedge.i ], [ %51, %48 ], [ %53, %52 ]
  %55 = tail call ptr @l___private_Lean_Meta_SynthInstance_0__Lean_Meta_preprocessArgs(ptr noundef %36, ptr noundef %.0.i, ptr noundef nonnull %.0.i.i.i, ptr noundef %3, ptr noundef %5, ptr noundef %6, ptr noundef %7, ptr noundef %8, ptr noundef %9)
  %56 = ptrtoint ptr %.0.i to i64
  %57 = and i64 %56, 1
  %.not26 = icmp eq i64 %57, 0
  br i1 %.not26, label %58, label %lean_dec.exit

58:                                               ; preds = %lean_nat_add.exit
  %59 = load i32, ptr %.0.i, align 4, !tbaa !4
  %60 = icmp sgt i32 %59, 1
  br i1 %60, label %61, label %63, !prof !11

61:                                               ; preds = %58
  %62 = add nsw i32 %59, -1
  store i32 %62, ptr %.0.i, align 4, !tbaa !4
  br label %lean_dec.exit

63:                                               ; preds = %58
  %.not.i21 = icmp eq i32 %59, 0
  br i1 %.not.i21, label %lean_dec.exit, label %64

64:                                               ; preds = %63
  tail call void @lean_dec_ref_cold(ptr noundef nonnull %.0.i) #7
  br label %lean_dec.exit

lean_dec.exit:                                    ; preds = %64, %63, %61, %lean_nat_add.exit
  ret ptr %55
}